target datalayout = "e-m:e-p270:32:32-p271:32:32-p272:64:64-i64:64-i128:128-f80:128-n8:16:32:64-S128"
target triple = "x86_64-pc-linux-gnu"

; Function Attrs: null_pointer_is_valid sspstrong uwtable
define internal zeroext i1 @dissect_dns_heur(ptr noundef %0, ptr noundef %1, ptr noundef %2, ptr noundef %3) #0 {
  %5 = alloca i1, align 1
  %6 = alloca ptr, align 8
  %7 = alloca ptr, align 8
  %8 = alloca ptr, align 8
  %9 = alloca ptr, align 8
  %10 = alloca i32, align 4
  %11 = alloca i16, align 2
  %12 = alloca i16, align 2
  %13 = alloca i16, align 2
  %14 = alloca i16, align 2
  %15 = alloca i16, align 2
  %16 = alloca i16, align 2
  %17 = alloca i16, align 2
  %18 = alloca i16, align 2
  %19 = alloca i32, align 4
  store ptr %0, ptr %6, align 8
  store ptr %1, ptr %7, align 8
  store ptr %2, ptr %8, align 8
  store ptr %3, ptr %9, align 8
  call void @llvm.lifetime.start.p0(i64 4, ptr %10) #11
  store i32 0, ptr %10, align 4
  call void @llvm.lifetime.start.p0(i64 2, ptr %11) #11
  call void @llvm.lifetime.start.p0(i64 2, ptr %12) #11
  call void @llvm.lifetime.start.p0(i64 2, ptr %13) #11
  call void @llvm.lifetime.start.p0(i64 2, ptr %14) #11
  call void @llvm.lifetime.start.p0(i64 2, ptr %15) #11
  call void @llvm.lifetime.start.p0(i64 2, ptr %16) #11
  store i16 100, ptr %16, align 2
  call void @llvm.lifetime.start.p0(i64 2, ptr %17) #11
  store i16 10, ptr %17, align 2
  call void @llvm.lifetime.start.p0(i64 2, ptr %18) #11
  store i16 10, ptr %18, align 2
  %20 = load ptr, ptr %6, align 8
  %21 = call i32 @tvb_reported_length(ptr noundef %20)
  %22 = icmp ule i32 %21, 12
  br i1 %22, label %23, label %24

23:                                               ; preds = %4
  store i1 false, ptr %5, align 1
  store i32 1, ptr %19, align 4
  br label %121

24:                                               ; preds = %4
  %25 = load ptr, ptr %6, align 8
  %26 = load i32, ptr %10, align 4
  %27 = add i32 %26, 2
  %28 = call zeroext i16 @tvb_get_ntohs(ptr noundef %25, i32 noundef %27)
  store i16 %28, ptr %11, align 2
  %29 = load i16, ptr %11, align 2
  %30 = zext i16 %29 to i32
  %31 = and i32 %30, 30720
  %32 = icmp ne i32 %31, 0
  br i1 %32, label %33, label %34

33:                                               ; preds = %24
  store i1 false, ptr %5, align 1
  store i32 1, ptr %19, align 4
  br label %121

34:                                               ; preds = %24
  %35 = load ptr, ptr %6, align 8
  %36 = load i32, ptr %10, align 4
  %37 = add i32 %36, 4
  %38 = call zeroext i16 @tvb_get_ntohs(ptr noundef %35, i32 noundef %37)
  store i16 %38, ptr %12, align 2
  %39 = load ptr, ptr %6, align 8
  %40 = load i32, ptr %10, align 4
  %41 = add i32 %40, 6
  %42 = call zeroext i16 @tvb_get_ntohs(ptr noundef %39, i32 noundef %41)
  store i16 %42, ptr %13, align 2
  %43 = load ptr, ptr %6, align 8
  %44 = load i32, ptr %10, align 4
  %45 = add i32 %44, 8
  %46 = call zeroext i16 @tvb_get_ntohs(ptr noundef %43, i32 noundef %45)
  store i16 %46, ptr %14, align 2
  %47 = load i16, ptr %11, align 2
  %48 = zext i16 %47 to i32
  %49 = and i32 %48, 32768
  %50 = icmp ne i32 %49, 0
  br i1 %50, label %65, label %51

51:                                               ; preds = %34
  %52 = load i16, ptr %12, align 2
  %53 = zext i16 %52 to i32
  %54 = icmp ne i32 %53, 1
  br i1 %54, label %63, label %55

55:                                               ; preds = %51
  %56 = load i16, ptr %13, align 2
  %57 = zext i16 %56 to i32
  %58 = icmp ne i32 %57, 0
  br i1 %58, label %63, label %59

59:                                               ; preds = %55
  %60 = load i16, ptr %14, align 2
  %61 = zext i16 %60 to i32
  %62 = icmp ne i32 %61, 0
  br i1 %62, label %63, label %64

63:                                               ; preds = %59, %55, %51
  store i1 false, ptr %5, align 1
  store i32 1, ptr %19, align 4
  br label %121

64:                                               ; preds = %59
  br label %79

65:                                               ; preds = %34
  %66 = load i16, ptr %12, align 2
  %67 = zext i16 %66 to i32
  %68 = icmp sgt i32 %67, 1
  br i1 %68, label %77, label %69

69:                                               ; preds = %65
  %70 = load i16, ptr %13, align 2
  %71 = zext i16 %70 to i32
  %72 = icmp sgt i32 %71, 100
  br i1 %72, label %77, label %73

73:                                               ; preds = %69
  %74 = load i16, ptr %14, align 2
  %75 = zext i16 %74 to i32
  %76 = icmp sgt i32 %75, 10
  br i1 %76, label %77, label %78

77:                                               ; preds = %73, %69, %65
  store i1 false, ptr %5, align 1
  store i32 1, ptr %19, align 4
  br label %121

78:                                               ; preds = %73
  br label %79

79:                                               ; preds = %78, %64
  %80 = load ptr, ptr %6, align 8
  %81 = load i32, ptr %10, align 4
  %82 = add i32 %81, 10
  %83 = call zeroext i16 @tvb_get_ntohs(ptr noundef %80, i32 noundef %82)
  store i16 %83, ptr %15, align 2
  %84 = load i16, ptr %15, align 2
  %85 = zext i16 %84 to i32
  %86 = icmp sgt i32 %85, 10
  br i1 %86, label %87, label %88

87:                                               ; preds = %79
  store i1 false, ptr %5, align 1
  store i32 1, ptr %19, align 4
  br label %121

88:                                               ; preds = %79
  %89 = load i16, ptr %12, align 2
  %90 = zext i16 %89 to i32
  %91 = load i16, ptr %13, align 2
  %92 = zext i16 %91 to i32
  %93 = add i32 %90, %92
  %94 = icmp eq i32 %93, 0
  br i1 %94, label %95, label %96

95:                                               ; preds = %88
  store i1 false, ptr %5, align 1
  store i32 1, ptr %19, align 4
  br label %121

96:                                               ; preds = %88
  %97 = load i16, ptr %12, align 2
  %98 = zext i16 %97 to i32
  %99 = mul i32 %98, 6
  %100 = load i16, ptr %13, align 2
  %101 = zext i16 %100 to i32
  %102 = load i16, ptr %14, align 2
  %103 = zext i16 %102 to i32
  %104 = add i32 %101, %103
  %105 = load i16, ptr %15, align 2
  %106 = zext i16 %105 to i32
  %107 = add i32 %104, %106
  %108 = mul i32 %107, 11
  %109 = add i32 %99, %108
  %110 = load ptr, ptr %6, align 8
  %111 = load i32, ptr %10, align 4
  %112 = add i32 %111, 12
  %113 = call i32 @tvb_reported_length_remaining(ptr noundef %110, i32 noundef %112)
  %114 = icmp sgt i32 %109, %113
  br i1 %114, label %115, label %116

115:                                              ; preds = %96
  store i1 false, ptr %5, align 1
  store i32 1, ptr %19, align 4
  br label %121

116:                                              ; preds = %96
  %117 = load ptr, ptr %6, align 8
  %118 = load ptr, ptr %7, align 8
  %119 = load ptr, ptr %8, align 8
  %120 = call i32 @dissect_dns(ptr noundef %117, ptr noundef %118, ptr noundef %119, ptr noundef null)
  store i1 true, ptr %5, align 1
  store i32 1, ptr %19, align 4
  br label %121

121:                                              ; preds = %116, %115, %95, %87, %77, %63, %33, %23
  call void @llvm.lifetime.end.p0(i64 2, ptr %18) #11
  call void @llvm.lifetime.end.p0(i64 2, ptr %17) #11
  call void @llvm.lifetime.end.p0(i64 2, ptr %16) #11
  call void @llvm.lifetime.end.p0(i64 2, ptr %15) #11
  call void @llvm.lifetime.end.p0(i64 2, ptr %14) #11
  call void @llvm.lifetime.end.p0(i64 2, ptr %13) #11
  call void @llvm.lifetime.end.p0(i64 2, ptr %12) #11
  call void @llvm.lifetime.end.p0(i64 2, ptr %11) #11
  call void @llvm.lifetime.end.p0(i64 4, ptr %10) #11
  %122 = load i1, ptr %5, align 1
  ret i1 %122
}