; Function Attrs: null_pointer_is_valid sspstrong uwtable
define internal noundef zeroext i1 @dissect_dns_heur(ptr noundef %0, ptr noundef %1, ptr noundef %2, ptr readnone captures(none) %3) #0 {
  %5 = tail call i32 @tvb_reported_length(ptr noundef %0)
  %6 = icmp ult i32 %5, 13
  br i1 %6, label %42, label %7

7:                                                ; preds = %4
  %8 = tail call zeroext i16 @tvb_get_ntohs(ptr noundef %0, i32 noundef 2)
  %9 = and i16 %8, 30720
  %.not = icmp eq i16 %9, 0
  br i1 %.not, label %10, label %42

10:                                               ; preds = %7
  %11 = tail call zeroext i16 @tvb_get_ntohs(ptr noundef %0, i32 noundef 4)
  %12 = tail call zeroext i16 @tvb_get_ntohs(ptr noundef %0, i32 noundef 6)
  %13 = tail call zeroext i16 @tvb_get_ntohs(ptr noundef %0, i32 noundef 8)
  %.not43 = icmp sgt i16 %8, -1
  br i1 %.not43, label %14, label %18

14:                                               ; preds = %10
  %15 = icmp ne i16 %11, 1
  %16 = icmp ne i16 %12, 0
  %or.cond = select i1 %15, i1 true, i1 %16
  %17 = icmp ne i16 %13, 0
  %or.cond5 = select i1 %or.cond, i1 true, i1 %17
  br i1 %or.cond5, label %42, label %22

18:                                               ; preds = %10
  %19 = icmp ugt i16 %11, 1
  %20 = icmp ugt i16 %12, 100
  %or.cond8 = select i1 %19, i1 true, i1 %20
  %21 = icmp ugt i16 %13, 10
  %or.cond11 = select i1 %or.cond8, i1 true, i1 %21
  br i1 %or.cond11, label %42, label %22

22:                                               ; preds = %18, %14
  %23 = tail call zeroext i16 @tvb_get_ntohs(ptr noundef %0, i32 noundef 10)
  %24 = zext i16 %23 to i32
  %25 = icmp ugt i16 %23, 10
  br i1 %25, label %42, label %26

26:                                               ; preds = %22
  %27 = zext nneg i16 %11 to i32
  %28 = zext nneg i16 %12 to i32
  %29 = or i32 %28, %27
  %30 = icmp eq i32 %29, 0
  br i1 %30, label %42, label %31

31:                                               ; preds = %26
  %32 = mul nuw nsw i32 %27, 6
  %33 = zext nneg i16 %13 to i32
  %34 = add nuw nsw i32 %33, %28
  %35 = add nuw nsw i32 %34, %24
  %36 = mul nuw nsw i32 %35, 11
  %37 = add nuw nsw i32 %36, %32
  %38 = tail call i32 @tvb_reported_length_remaining(ptr noundef %0, i32 noundef 12)
  %39 = icmp sgt i32 %37, %38
  br i1 %39, label %42, label %40

40:                                               ; preds = %31
  %41 = tail call i32 @dissect_dns(ptr noundef %0, ptr noundef %1, ptr noundef %2, ptr noundef null)
  br label %42

42:                                               ; preds = %31, %26, %22, %18, %14, %7, %4, %40
  %.0 = phi i1 [ true, %40 ], [ false, %4 ], [ false, %7 ], [ false, %14 ], [ false, %18 ], [ false, %22 ], [ false, %26 ], [ false, %31 ]
  ret i1 %.0
}